; Function Attrs: nounwind sspstrong uwtable
define dso_local void @gdb_breakpoint_remove_all(ptr noundef %0) local_unnamed_addr #2 {
  %2 = tail call ptr @cpus_get_accel() #16
  %3 = getelementptr inbounds nuw i8, ptr %2, i64 248
  %4 = load ptr, ptr %3, align 8
  %.not = icmp eq ptr %4, null
  br i1 %.not, label %6, label %5

5:                                                ; preds = %1
  tail call void %4(ptr noundef %0) #16
  br label %6

6:                                                ; preds = %5, %1
  ret void
}